#include <math.h>
#include <stdio.h>
#include <stdlib.h>
#include <string.h>

int main()
{
	int m,a,b,n,c,i,j;
	double s[100],d;
	scanf("%d",&m);
	for(i=0;i<m;i++)
	{
		d=1.0*0;
		a=2;
		b=1;
		scanf("%d",&n);
			for(j=0;j<n;j++)
			{
				d+=1.0*a/b;
				c=a;
				a=a+b;
				b=c;
			}
			s[i]=d;
	}
	for(i=0;i<m;i++)
	{
		printf("%.3lf\n",s[i]);
	}
	return 0;
}